ARM GAS  C:\Users\acer\AppData\Local\Temp\cclHZkaZ.s 			page 1


   1              		.syntax unified
   2              		.cpu cortex-m3
   3              		.fpu softvfp
   4              		.eabi_attribute 20, 1
   5              		.eabi_attribute 21, 1
   6              		.eabi_attribute 23, 3
   7              		.eabi_attribute 24, 1
   8              		.eabi_attribute 25, 1
   9              		.eabi_attribute 26, 1
  10              		.eabi_attribute 30, 1
  11              		.eabi_attribute 34, 1
  12              		.eabi_attribute 18, 4
  13              		.thumb
  14              		.syntax unified
  15              		.file	"arcadian.c"
  16              		.text
  17              	.Ltext0:
  18              		.cfi_sections	.debug_frame
  19              		.section	.text.glower,"ax",%progbits
  20              		.align	2
  21              		.global	glower
  22              		.thumb
  23              		.thumb_func
  24              		.type	glower, %function
  25              	glower:
  26              	.LFB111:
  27              		.file 1 "source\\asw\\arcadian.c"
   1:source\asw/arcadian.c **** /* ========================================
   2:source\asw/arcadian.c ****  *
   3:source\asw/arcadian.c ****  * Copyright YOUR COMPANY, THE YEAR
   4:source\asw/arcadian.c ****  * All Rights Reserved
   5:source\asw/arcadian.c ****  * UNPUBLISHED, LICENSED SOFTWARE.
   6:source\asw/arcadian.c ****  *
   7:source\asw/arcadian.c ****  * CONFIDENTIAL AND PROPRIETARY INFORMATION
   8:source\asw/arcadian.c ****  * WHICH IS THE PROPERTY OF your company.
   9:source\asw/arcadian.c ****  *
  10:source\asw/arcadian.c ****  * ========================================
  11:source\asw/arcadian.c **** */
  12:source\asw/arcadian.c **** #include "arcadian.h"
  13:source\asw/arcadian.c **** 
  14:source\asw/arcadian.c **** /**
  15:source\asw/arcadian.c **** * Function Glower that changes intensity of red, green and blue LEDs
  16:source\asw/arcadian.c **** * which glows and fades at required intervals mentioned in the glow table
  17:source\asw/arcadian.c **** */
  18:source\asw/arcadian.c **** void glower(){
  28              		.loc 1 18 0
  29              		.cfi_startproc
  30              		@ args = 0, pretend = 0, frame = 0
  31              		@ frame_needed = 0, uses_anonymous_args = 0
  32 0000 38B5     		push	{r3, r4, r5, lr}
  33              		.cfi_def_cfa_offset 16
  34              		.cfi_offset 3, -16
  35              		.cfi_offset 4, -12
  36              		.cfi_offset 5, -8
  37              		.cfi_offset 14, -4
  19:source\asw/arcadian.c ****     static  uint8_t glow = 0;
  20:source\asw/arcadian.c **** 
ARM GAS  C:\Users\acer\AppData\Local\Temp\cclHZkaZ.s 			page 2


  21:source\asw/arcadian.c ****     if(glow<sizeof(RG_glowtable_1) / sizeof(RG__Glow_t)){
  38              		.loc 1 21 0
  39 0002 0D4B     		ldr	r3, .L5
  40 0004 1B78     		ldrb	r3, [r3]	@ zero_extendqisi2
  41 0006 082B     		cmp	r3, #8
  42 0008 12D8     		bhi	.L2
  43              	.LBB2:
  22:source\asw/arcadian.c ****     int redValue = RG_glowtable_1[glow].intensity_red;
  44              		.loc 1 22 0
  45 000a 0C4C     		ldr	r4, .L5+4
  46 000c 5A00     		lsls	r2, r3, #1
  47 000e D118     		adds	r1, r2, r3
  48 0010 4800     		lsls	r0, r1, #1
  49 0012 2118     		adds	r1, r4, r0
  50              	.LVL0:
  23:source\asw/arcadian.c ****     int greenValue = RG_glowtable_1[glow].intensity_green;
  24:source\asw/arcadian.c ****     int blueValue = RG_glowtable_1[glow].intensity_blue;
  25:source\asw/arcadian.c ****     int timeInMS = RG_glowtable_1[glow].timeInMS;
  51              		.loc 1 25 0
  52 0014 8D88     		ldrh	r5, [r1, #4]
  53              	.LVL1:
  26:source\asw/arcadian.c ****     LED_RGB_Set(redValue,greenValue,blueValue);
  54              		.loc 1 26 0
  55 0016 8A78     		ldrb	r2, [r1, #2]	@ zero_extendqisi2
  56              	.LVL2:
  57 0018 4978     		ldrb	r1, [r1, #1]	@ zero_extendqisi2
  58              	.LVL3:
  59 001a 205C     		ldrb	r0, [r4, r0]	@ zero_extendqisi2
  60              	.LVL4:
  61 001c FFF7FEFF 		bl	LED_RGB_Set
  62              	.LVL5:
  27:source\asw/arcadian.c ****     CyDelay(timeInMS);
  63              		.loc 1 27 0
  64 0020 2846     		mov	r0, r5
  65 0022 FFF7FEFF 		bl	CyDelay
  66              	.LVL6:
  28:source\asw/arcadian.c ****     glow++;
  67              		.loc 1 28 0
  68 0026 044A     		ldr	r2, .L5
  69 0028 1378     		ldrb	r3, [r2]	@ zero_extendqisi2
  70 002a 0133     		adds	r3, r3, #1
  71 002c 1370     		strb	r3, [r2]
  72              	.LBE2:
  73 002e 38BD     		pop	{r3, r4, r5, pc}
  74              	.LVL7:
  75              	.L2:
  29:source\asw/arcadian.c ****     }
  30:source\asw/arcadian.c ****     else{  
  31:source\asw/arcadian.c ****     glow =0;
  76              		.loc 1 31 0
  77 0030 0022     		movs	r2, #0
  78 0032 014B     		ldr	r3, .L5
  79 0034 1A70     		strb	r2, [r3]
  80 0036 38BD     		pop	{r3, r4, r5, pc}
  81              	.L6:
  82              		.align	2
  83              	.L5:
ARM GAS  C:\Users\acer\AppData\Local\Temp\cclHZkaZ.s 			page 3


  84 0038 00000000 		.word	.LANCHOR0
  85 003c 00000000 		.word	.LANCHOR1
  86              		.cfi_endproc
  87              	.LFE111:
  88              		.size	glower, .-glower
  89              		.section	.text.fader,"ax",%progbits
  90              		.align	2
  91              		.global	fader
  92              		.thumb
  93              		.thumb_func
  94              		.type	fader, %function
  95              	fader:
  96              	.LFB112:
  32:source\asw/arcadian.c ****     }
  33:source\asw/arcadian.c **** }
  34:source\asw/arcadian.c **** 
  35:source\asw/arcadian.c **** /**
  36:source\asw/arcadian.c **** * Function Fader that changes intensity of red, yellow and green LED
  37:source\asw/arcadian.c **** * which glows and fades at required intervals 
  38:source\asw/arcadian.c **** */
  39:source\asw/arcadian.c **** void fader(){
  97              		.loc 1 39 0
  98              		.cfi_startproc
  99              		@ args = 0, pretend = 0, frame = 0
 100              		@ frame_needed = 0, uses_anonymous_args = 0
 101 0000 10B5     		push	{r4, lr}
 102              		.cfi_def_cfa_offset 8
 103              		.cfi_offset 4, -8
 104              		.cfi_offset 14, -4
  40:source\asw/arcadian.c ****     static int i = 0;
  41:source\asw/arcadian.c ****     static int j = 0;
  42:source\asw/arcadian.c ****     static int k = 0;
  43:source\asw/arcadian.c ****     static int state = 0;
  44:source\asw/arcadian.c ****     switch (state) {
 105              		.loc 1 44 0
 106 0002 234B     		ldr	r3, .L13
 107 0004 5B68     		ldr	r3, [r3, #4]
 108 0006 012B     		cmp	r3, #1
 109 0008 18D0     		beq	.L9
 110 000a 022B     		cmp	r3, #2
 111 000c 2BD0     		beq	.L10
 112 000e 002B     		cmp	r3, #0
 113 0010 3CD1     		bne	.L7
  45:source\asw/arcadian.c ****     case 0:
  46:source\asw/arcadian.c ****         PWM_Red_WriteCompare(i);
 114              		.loc 1 46 0
 115 0012 1F4C     		ldr	r4, .L13
 116 0014 207A     		ldrb	r0, [r4, #8]	@ zero_extendqisi2
 117 0016 FFF7FEFF 		bl	PWM_Red_WriteCompare
 118              	.LVL8:
  47:source\asw/arcadian.c ****         PWM_Green_WriteCompare(255 - i);
 119              		.loc 1 47 0
 120 001a A068     		ldr	r0, [r4, #8]
 121 001c C043     		mvns	r0, r0
 122 001e C0B2     		uxtb	r0, r0
 123 0020 FFF7FEFF 		bl	PWM_Green_WriteCompare
 124              	.LVL9:
ARM GAS  C:\Users\acer\AppData\Local\Temp\cclHZkaZ.s 			page 4


  48:source\asw/arcadian.c ****         i += 15;
 125              		.loc 1 48 0
 126 0024 A368     		ldr	r3, [r4, #8]
 127 0026 0F33     		adds	r3, r3, #15
 128 0028 A360     		str	r3, [r4, #8]
  49:source\asw/arcadian.c **** 
  50:source\asw/arcadian.c ****         if (PWM_Red_ReadCompare() == 255) {
 129              		.loc 1 50 0
 130 002a FFF7FEFF 		bl	PWM_Red_ReadCompare
 131              	.LVL10:
 132 002e FF28     		cmp	r0, #255
 133 0030 2CD1     		bne	.L7
  51:source\asw/arcadian.c ****             state = 1;
 134              		.loc 1 51 0
 135 0032 0122     		movs	r2, #1
 136 0034 6260     		str	r2, [r4, #4]
  52:source\asw/arcadian.c ****             i = 0;
 137              		.loc 1 52 0
 138 0036 0022     		movs	r2, #0
 139 0038 A260     		str	r2, [r4, #8]
 140 003a 10BD     		pop	{r4, pc}
 141              	.L9:
  53:source\asw/arcadian.c ****         }
  54:source\asw/arcadian.c ****         break;
  55:source\asw/arcadian.c **** 
  56:source\asw/arcadian.c ****     case 1:
  57:source\asw/arcadian.c ****         PWM_Yellow_WriteCompare(j);
 142              		.loc 1 57 0
 143 003c 144C     		ldr	r4, .L13
 144 003e 207B     		ldrb	r0, [r4, #12]	@ zero_extendqisi2
 145 0040 FFF7FEFF 		bl	PWM_Yellow_WriteCompare
 146              	.LVL11:
  58:source\asw/arcadian.c ****         PWM_Red_WriteCompare(255 - j);
 147              		.loc 1 58 0
 148 0044 E068     		ldr	r0, [r4, #12]
 149 0046 C043     		mvns	r0, r0
 150 0048 C0B2     		uxtb	r0, r0
 151 004a FFF7FEFF 		bl	PWM_Red_WriteCompare
 152              	.LVL12:
  59:source\asw/arcadian.c ****         j += 15;
 153              		.loc 1 59 0
 154 004e E368     		ldr	r3, [r4, #12]
 155 0050 0F33     		adds	r3, r3, #15
 156 0052 E360     		str	r3, [r4, #12]
  60:source\asw/arcadian.c **** 
  61:source\asw/arcadian.c ****         if (PWM_Yellow_ReadCompare() == 255) {
 157              		.loc 1 61 0
 158 0054 FFF7FEFF 		bl	PWM_Yellow_ReadCompare
 159              	.LVL13:
 160 0058 FF28     		cmp	r0, #255
 161 005a 17D1     		bne	.L7
  62:source\asw/arcadian.c ****             state = 2;
 162              		.loc 1 62 0
 163 005c 0222     		movs	r2, #2
 164 005e 6260     		str	r2, [r4, #4]
  63:source\asw/arcadian.c ****             j = 0;
 165              		.loc 1 63 0
ARM GAS  C:\Users\acer\AppData\Local\Temp\cclHZkaZ.s 			page 5


 166 0060 0022     		movs	r2, #0
 167 0062 E260     		str	r2, [r4, #12]
 168 0064 10BD     		pop	{r4, pc}
 169              	.L10:
  64:source\asw/arcadian.c ****         }
  65:source\asw/arcadian.c ****         break;
  66:source\asw/arcadian.c **** 
  67:source\asw/arcadian.c ****     case 2:
  68:source\asw/arcadian.c ****         PWM_Green_WriteCompare(k);
 170              		.loc 1 68 0
 171 0066 0A4C     		ldr	r4, .L13
 172 0068 207C     		ldrb	r0, [r4, #16]	@ zero_extendqisi2
 173 006a FFF7FEFF 		bl	PWM_Green_WriteCompare
 174              	.LVL14:
  69:source\asw/arcadian.c ****         PWM_Yellow_WriteCompare(255 - k);
 175              		.loc 1 69 0
 176 006e 2069     		ldr	r0, [r4, #16]
 177 0070 C043     		mvns	r0, r0
 178 0072 C0B2     		uxtb	r0, r0
 179 0074 FFF7FEFF 		bl	PWM_Yellow_WriteCompare
 180              	.LVL15:
  70:source\asw/arcadian.c ****         k += 15;
 181              		.loc 1 70 0
 182 0078 2369     		ldr	r3, [r4, #16]
 183 007a 0F33     		adds	r3, r3, #15
 184 007c 2361     		str	r3, [r4, #16]
  71:source\asw/arcadian.c **** 
  72:source\asw/arcadian.c ****         if (PWM_Green_ReadCompare() == 255) {
 185              		.loc 1 72 0
 186 007e FFF7FEFF 		bl	PWM_Green_ReadCompare
 187              	.LVL16:
 188 0082 FF28     		cmp	r0, #255
 189 0084 02D1     		bne	.L7
  73:source\asw/arcadian.c ****             state = 0;
 190              		.loc 1 73 0
 191 0086 0022     		movs	r2, #0
 192 0088 6260     		str	r2, [r4, #4]
  74:source\asw/arcadian.c ****             k = 0;
 193              		.loc 1 74 0
 194 008a 2261     		str	r2, [r4, #16]
 195              	.L7:
 196 008c 10BD     		pop	{r4, pc}
 197              	.L14:
 198 008e 00BF     		.align	2
 199              	.L13:
 200 0090 00000000 		.word	.LANCHOR0
 201              		.cfi_endproc
 202              	.LFE112:
 203              		.size	fader, .-fader
 204              		.section	.text.Functsk_arcadian,"ax",%progbits
 205              		.align	2
 206              		.global	Functsk_arcadian
 207              		.thumb
 208              		.thumb_func
 209              		.type	Functsk_arcadian, %function
 210              	Functsk_arcadian:
 211              	.LFB113:
ARM GAS  C:\Users\acer\AppData\Local\Temp\cclHZkaZ.s 			page 6


  75:source\asw/arcadian.c ****         }
  76:source\asw/arcadian.c ****         break;
  77:source\asw/arcadian.c ****     }
  78:source\asw/arcadian.c **** }
  79:source\asw/arcadian.c **** 
  80:source\asw/arcadian.c **** /*
  81:source\asw/arcadian.c **** * tsk_arcadian is a basic task with the least priority that produces a
  82:source\asw/arcadian.c **** * knightrider effect from the fader function and the glower function
  83:source\asw/arcadian.c **** * produces a pattern of rise and fall of LED brightness on the RGB LED
  84:source\asw/arcadian.c **** */
  85:source\asw/arcadian.c **** TASK(tsk_arcadian)
  86:source\asw/arcadian.c **** {
 212              		.loc 1 86 0
 213              		.cfi_startproc
 214              		@ args = 0, pretend = 0, frame = 0
 215              		@ frame_needed = 0, uses_anonymous_args = 0
 216 0000 08B5     		push	{r3, lr}
 217              		.cfi_def_cfa_offset 8
 218              		.cfi_offset 3, -8
 219              		.cfi_offset 14, -4
  87:source\asw/arcadian.c ****     glower();
 220              		.loc 1 87 0
 221 0002 FFF7FEFF 		bl	glower
 222              	.LVL17:
  88:source\asw/arcadian.c ****     fader();
 223              		.loc 1 88 0
 224 0006 FFF7FEFF 		bl	fader
 225              	.LVL18:
  89:source\asw/arcadian.c ****     TerminateTask();
 226              		.loc 1 89 0
 227 000a FFF7FEFF 		bl	EE_oo_TerminateTask
 228              	.LVL19:
 229 000e 08BD     		pop	{r3, pc}
 230              		.cfi_endproc
 231              	.LFE113:
 232              		.size	Functsk_arcadian, .-Functsk_arcadian
 233              		.global	RG_glowtable_1
 234              		.section	.rodata
 235              		.align	2
 236              		.set	.LANCHOR1,. + 0
 237              		.type	RG_glowtable_1, %object
 238              		.size	RG_glowtable_1, 54
 239              	RG_glowtable_1:
 240 0000 FF       		.byte	-1
 241 0001 00       		.byte	0
 242 0002 00       		.byte	0
 243 0003 00       		.space	1
 244 0004 F401     		.short	500
 245 0006 00       		.byte	0
 246 0007 FF       		.byte	-1
 247 0008 00       		.byte	0
 248 0009 00       		.space	1
 249 000a F401     		.short	500
 250 000c 00       		.byte	0
 251 000d 00       		.byte	0
 252 000e FF       		.byte	-1
 253 000f 00       		.space	1
ARM GAS  C:\Users\acer\AppData\Local\Temp\cclHZkaZ.s 			page 7


 254 0010 F401     		.short	500
 255 0012 00       		.byte	0
 256 0013 00       		.byte	0
 257 0014 00       		.byte	0
 258 0015 00       		.space	1
 259 0016 6400     		.short	100
 260 0018 FF       		.byte	-1
 261 0019 FF       		.byte	-1
 262 001a FF       		.byte	-1
 263 001b 00       		.space	1
 264 001c 6400     		.short	100
 265 001e 00       		.byte	0
 266 001f 00       		.byte	0
 267 0020 00       		.byte	0
 268 0021 00       		.space	1
 269 0022 6400     		.short	100
 270 0024 FF       		.byte	-1
 271 0025 FF       		.byte	-1
 272 0026 FF       		.byte	-1
 273 0027 00       		.space	1
 274 0028 6400     		.short	100
 275 002a 00       		.byte	0
 276 002b 00       		.byte	0
 277 002c 00       		.byte	0
 278 002d 00       		.space	1
 279 002e 6400     		.short	100
 280 0030 FF       		.byte	-1
 281 0031 FF       		.byte	-1
 282 0032 FF       		.byte	-1
 283 0033 00       		.space	1
 284 0034 6400     		.short	100
 285              		.bss
 286              		.align	2
 287              		.set	.LANCHOR0,. + 0
 288              		.type	glow.8874, %object
 289              		.size	glow.8874, 1
 290              	glow.8874:
 291 0000 00       		.space	1
 292 0001 000000   		.space	3
 293              		.type	state.8884, %object
 294              		.size	state.8884, 4
 295              	state.8884:
 296 0004 00000000 		.space	4
 297              		.type	i.8881, %object
 298              		.size	i.8881, 4
 299              	i.8881:
 300 0008 00000000 		.space	4
 301              		.type	j.8882, %object
 302              		.size	j.8882, 4
 303              	j.8882:
 304 000c 00000000 		.space	4
 305              		.type	k.8883, %object
 306              		.size	k.8883, 4
 307              	k.8883:
 308 0010 00000000 		.space	4
 309              		.text
 310              	.Letext0:
ARM GAS  C:\Users\acer\AppData\Local\Temp\cclHZkaZ.s 			page 8


 311              		.file 2 "c:\\program files (x86)\\cypress\\psoc creator\\4.4\\psoc creator\\import\\gnu\\arm\\5.4.
 312              		.file 3 "c:\\program files (x86)\\cypress\\psoc creator\\4.4\\psoc creator\\import\\gnu\\arm\\5.4.
 313              		.file 4 "Generated_Source\\PSoC5/ErikaOS_1_common_ee_types.inc"
 314              		.file 5 "Generated_Source\\PSoC5/ErikaOS_1_cortex_mx_ee_cpu.inc"
 315              		.file 6 "source\\asw\\arcadian.h"
 316              		.file 7 "Generated_Source\\PSoC5/ErikaOS_1_ee_oo_intfunc.inc"
 317              		.file 8 "Generated_Source\\PSoC5/ErikaOS_1_cortex_mx_ee_context.inc"
 318              		.file 9 "Generated_Source\\PSoC5/ErikaOS_1_common_ee_primitives.inc"
 319              		.file 10 "Generated_Source\\PSoC5/core_cm3.h"
 320              		.file 11 ".\\source\\bsw\\LabBoard/led.h"
 321              		.file 12 "Generated_Source\\PSoC5/CyLib.h"
 322              		.file 13 "Generated_Source\\PSoC5/PWM_Red.h"
 323              		.file 14 "Generated_Source\\PSoC5/PWM_Green.h"
 324              		.file 15 "Generated_Source\\PSoC5/PWM_Yellow.h"
 325              		.file 16 "Generated_Source\\PSoC5/ErikaOS_1_ee_oo_kernel.inc"