ARM GAS  C:\Users\acer\AppData\Local\Temp\ccOt5Npb.s 			page 1


   1              		.syntax unified
   2              		.cpu cortex-m3
   3              		.fpu softvfp
   4              		.eabi_attribute 20, 1
   5              		.eabi_attribute 21, 1
   6              		.eabi_attribute 23, 3
   7              		.eabi_attribute 24, 1
   8              		.eabi_attribute 25, 1
   9              		.eabi_attribute 26, 1
  10              		.eabi_attribute 30, 1
  11              		.eabi_attribute 34, 1
  12              		.eabi_attribute 18, 4
  13              		.thumb
  14              		.syntax unified
  15              		.file	"game.c"
  16              		.text
  17              	.Ltext0:
  18              		.cfi_sections	.debug_frame
  19              		.section	.text.reactionSpeed,"ax",%progbits
  20              		.align	2
  21              		.global	reactionSpeed
  22              		.thumb
  23              		.thumb_func
  24              		.type	reactionSpeed, %function
  25              	reactionSpeed:
  26              	.LFB111:
  27              		.file 1 "source\\asw\\game.c"
   1:source\asw/game.c **** /* ========================================
   2:source\asw/game.c ****  *
   3:source\asw/game.c ****  * Copyright YOUR COMPANY, THE YEAR
   4:source\asw/game.c ****  * All Rights Reserved
   5:source\asw/game.c ****  * UNPUBLISHED, LICENSED SOFTWARE.
   6:source\asw/game.c ****  *
   7:source\asw/game.c ****  * CONFIDENTIAL AND PROPRIETARY INFORMATION
   8:source\asw/game.c ****  * WHICH IS THE PROPERTY OF your company.
   9:source\asw/game.c ****  *
  10:source\asw/game.c ****  * ========================================
  11:source\asw/game.c **** */
  12:source\asw/game.c **** #include "game.h"
  13:source\asw/game.c **** /*
  14:source\asw/game.c **** * Function to check the reaction time of the user. If the time of 
  15:source\asw/game.c **** * response between the seven segment display and button press is 
  16:source\asw/game.c **** * over 1s, then Too slow will be displayed
  17:source\asw/game.c **** * @param uint16_t reactionTime : [IN] time between the seven segment
  18:source\asw/game.c **** *                                    display and button press
  19:source\asw/game.c **** * @returns RC_ERROR : [OUT] if Reaction speed is too slow (>1s)
  20:source\asw/game.c **** * @returns RC_SUCCESS:[OUT] if Reaction speed is within 1s
  21:source\asw/game.c **** */
  22:source\asw/game.c **** RC_t reactionSpeed(uint16_t reactionTime ){
  28              		.loc 1 22 0
  29              		.cfi_startproc
  30              		@ args = 0, pretend = 0, frame = 0
  31              		@ frame_needed = 0, uses_anonymous_args = 0
  32              	.LVL0:
  23:source\asw/game.c ****     if(reactionTime > 1000){
  33              		.loc 1 23 0
  34 0000 B0F57A7F 		cmp	r0, #1000
ARM GAS  C:\Users\acer\AppData\Local\Temp\ccOt5Npb.s 			page 2


  35 0004 06D9     		bls	.L3
  22:source\asw/game.c ****     if(reactionTime > 1000){
  36              		.loc 1 22 0
  37 0006 08B5     		push	{r3, lr}
  38              		.cfi_def_cfa_offset 8
  39              		.cfi_offset 3, -8
  40              		.cfi_offset 14, -4
  24:source\asw/game.c ****         UART_LOG_PutString("Too slow \n");
  41              		.loc 1 24 0
  42 0008 0348     		ldr	r0, .L6
  43              	.LVL1:
  44 000a FFF7FEFF 		bl	UART_LOG_PutString
  45              	.LVL2:
  25:source\asw/game.c ****         return RC_ERROR;
  46              		.loc 1 25 0
  47 000e 4FF0FF30 		mov	r0, #-1
  48 0012 08BD     		pop	{r3, pc}
  49              	.LVL3:
  50              	.L3:
  51              		.cfi_def_cfa_offset 0
  52              		.cfi_restore 3
  53              		.cfi_restore 14
  26:source\asw/game.c ****     }
  27:source\asw/game.c ****     return RC_SUCCESS;
  54              		.loc 1 27 0
  55 0014 0020     		movs	r0, #0
  56              	.LVL4:
  57 0016 7047     		bx	lr
  58              	.L7:
  59              		.align	2
  60              	.L6:
  61 0018 00000000 		.word	.LC0
  62              		.cfi_endproc
  63              	.LFE111:
  64              		.size	reactionSpeed, .-reactionSpeed
  65              		.section	.text.startGame,"ax",%progbits
  66              		.align	2
  67              		.global	startGame
  68              		.thumb
  69              		.thumb_func
  70              		.type	startGame, %function
  71              	startGame:
  72              	.LFB112:
  28:source\asw/game.c **** }
  29:source\asw/game.c **** 
  30:source\asw/game.c **** 
  31:source\asw/game.c **** uint16_t startTime = 0;
  32:source\asw/game.c **** uint16_t counterTimer = 0;
  33:source\asw/game.c **** 
  34:source\asw/game.c **** /*
  35:source\asw/game.c **** * Function to initialize the reaction test program
  36:source\asw/game.c **** */
  37:source\asw/game.c **** void startGame() {
  73              		.loc 1 37 0
  74              		.cfi_startproc
  75              		@ args = 0, pretend = 0, frame = 0
  76              		@ frame_needed = 0, uses_anonymous_args = 0
ARM GAS  C:\Users\acer\AppData\Local\Temp\ccOt5Npb.s 			page 3


  77 0000 08B5     		push	{r3, lr}
  78              		.cfi_def_cfa_offset 8
  79              		.cfi_offset 3, -8
  80              		.cfi_offset 14, -4
  38:source\asw/game.c ****     srand(counterTimer);
  81              		.loc 1 38 0
  82 0002 074B     		ldr	r3, .L10
  83 0004 1888     		ldrh	r0, [r3]
  84 0006 FFF7FEFF 		bl	srand
  85              	.LVL5:
  39:source\asw/game.c ****     UART_LOG_PutString("=======================================================\n");
  86              		.loc 1 39 0
  87 000a 0648     		ldr	r0, .L10+4
  88 000c FFF7FEFF 		bl	UART_LOG_PutString
  89              	.LVL6:
  40:source\asw/game.c ****     UART_LOG_PutString("Reaction test program\n");
  90              		.loc 1 40 0
  91 0010 0548     		ldr	r0, .L10+8
  92 0012 FFF7FEFF 		bl	UART_LOG_PutString
  93              	.LVL7:
  41:source\asw/game.c ****     UART_LOG_PutString("Press one of the two buttons to start... \n");
  94              		.loc 1 41 0
  95 0016 0548     		ldr	r0, .L10+12
  96 0018 FFF7FEFF 		bl	UART_LOG_PutString
  97              	.LVL8:
  98 001c 08BD     		pop	{r3, pc}
  99              	.L11:
 100 001e 00BF     		.align	2
 101              	.L10:
 102 0020 00000000 		.word	.LANCHOR0
 103 0024 0C000000 		.word	.LC1
 104 0028 48000000 		.word	.LC2
 105 002c 60000000 		.word	.LC3
 106              		.cfi_endproc
 107              	.LFE112:
 108              		.size	startGame, .-startGame
 109              		.section	.text.generateRandomDelayAndDisplay,"ax",%progbits
 110              		.align	2
 111              		.global	generateRandomDelayAndDisplay
 112              		.thumb
 113              		.thumb_func
 114              		.type	generateRandomDelayAndDisplay, %function
 115              	generateRandomDelayAndDisplay:
 116              	.LFB113:
  42:source\asw/game.c **** }
  43:source\asw/game.c **** 
  44:source\asw/game.c **** /*
  45:source\asw/game.c **** * Function to generate a random delay and display a random number on the 7-segment displays
  46:source\asw/game.c **** * It also captures the current counter timing in startTime variable
  47:source\asw/game.c **** */
  48:source\asw/game.c **** void generateRandomDelayAndDisplay() {
 117              		.loc 1 48 0
 118              		.cfi_startproc
 119              		@ args = 0, pretend = 0, frame = 0
 120              		@ frame_needed = 0, uses_anonymous_args = 0
 121 0000 10B5     		push	{r4, lr}
 122              		.cfi_def_cfa_offset 8
ARM GAS  C:\Users\acer\AppData\Local\Temp\ccOt5Npb.s 			page 4


 123              		.cfi_offset 4, -8
 124              		.cfi_offset 14, -4
  49:source\asw/game.c ****     uint8_t randomDelay = (rand() % 2000) + 1000;
 125              		.loc 1 49 0
 126 0002 FFF7FEFF 		bl	rand
 127              	.LVL9:
 128 0006 154B     		ldr	r3, .L15
 129 0008 83FB0032 		smull	r3, r2, r3, r0
 130 000c C317     		asrs	r3, r0, #31
 131 000e C3EBE213 		rsb	r3, r3, r2, asr #7
 132 0012 4FF4FA62 		mov	r2, #2000
 133 0016 02FB1303 		mls	r3, r2, r3, r0
 134 001a A3F11800 		sub	r0, r3, #24
 135              	.LVL10:
  50:source\asw/game.c ****     CyDelay(randomDelay);
 136              		.loc 1 50 0
 137 001e C0B2     		uxtb	r0, r0
 138 0020 FFF7FEFF 		bl	CyDelay
 139              	.LVL11:
  51:source\asw/game.c ****     srand(counterTimer);
 140              		.loc 1 51 0
 141 0024 0E4B     		ldr	r3, .L15+4
 142 0026 1888     		ldrh	r0, [r3]
 143 0028 FFF7FEFF 		bl	srand
 144              	.LVL12:
  52:source\asw/game.c ****     uint8_t currentNumOnSeg = (rand() % 2) + 1;
 145              		.loc 1 52 0
 146 002c FFF7FEFF 		bl	rand
 147              	.LVL13:
 148 0030 0C4B     		ldr	r3, .L15+8
 149 0032 1840     		ands	r0, r0, r3
 150 0034 03D5     		bpl	.L13
 151 0036 0138     		subs	r0, r0, #1
 152 0038 60F00100 		orn	r0, r0, #1
 153 003c 0130     		adds	r0, r0, #1
 154              	.L13:
 155 003e 0130     		adds	r0, r0, #1
 156 0040 C4B2     		uxtb	r4, r0
 157              	.LVL14:
  53:source\asw/game.c **** 
  54:source\asw/game.c ****     SEVEN_Set(SEVEN_1, currentNumOnSeg);
 158              		.loc 1 54 0
 159 0042 2146     		mov	r1, r4
 160 0044 0120     		movs	r0, #1
 161 0046 FFF7FEFF 		bl	SEVEN_Set
 162              	.LVL15:
  55:source\asw/game.c ****     SEVEN_Set(SEVEN_0, currentNumOnSeg);
 163              		.loc 1 55 0
 164 004a 2146     		mov	r1, r4
 165 004c 0020     		movs	r0, #0
 166 004e FFF7FEFF 		bl	SEVEN_Set
 167              	.LVL16:
  56:source\asw/game.c ****     
  57:source\asw/game.c ****     startTime = counterTimer;
 168              		.loc 1 57 0
 169 0052 034B     		ldr	r3, .L15+4
 170 0054 1A88     		ldrh	r2, [r3]
ARM GAS  C:\Users\acer\AppData\Local\Temp\ccOt5Npb.s 			page 5


 171 0056 5A80     		strh	r2, [r3, #2]	@ movhi
 172 0058 10BD     		pop	{r4, pc}
 173              	.LVL17:
 174              	.L16:
 175 005a 00BF     		.align	2
 176              	.L15:
 177 005c D34D6210 		.word	274877907
 178 0060 00000000 		.word	.LANCHOR0
 179 0064 01000080 		.word	-2147483647
 180              		.cfi_endproc
 181              	.LFE113:
 182              		.size	generateRandomDelayAndDisplay, .-generateRandomDelayAndDisplay
 183              		.section	.text.Functsk_button,"ax",%progbits
 184              		.align	2
 185              		.global	Functsk_button
 186              		.thumb
 187              		.thumb_func
 188              		.type	Functsk_button, %function
 189              	Functsk_button:
 190              	.LFB114:
  58:source\asw/game.c **** }
  59:source\asw/game.c **** 
  60:source\asw/game.c **** /*
  61:source\asw/game.c **** * tsk_button is an extended task that waits for a button 3 or 4 to be pressed
  62:source\asw/game.c **** * to start/reset the game. The ISR2 isr_Reset checks if button 3 or 4 is 
  63:source\asw/game.c **** * pressed and sets the event for this task. 
  64:source\asw/game.c **** * This task also generates a random delay between 1s to 3s before displaying 
  65:source\asw/game.c **** * a random number 1 or 2 on the 7-segment display which is done by calling
  66:source\asw/game.c **** * generateRandomDelayAndDisplay() function
  67:source\asw/game.c **** */
  68:source\asw/game.c **** TASK(tsk_button) {
 191              		.loc 1 68 0
 192              		.cfi_startproc
 193              		@ args = 0, pretend = 0, frame = 8
 194              		@ frame_needed = 0, uses_anonymous_args = 0
 195 0000 10B5     		push	{r4, lr}
 196              		.cfi_def_cfa_offset 8
 197              		.cfi_offset 4, -8
 198              		.cfi_offset 14, -4
 199 0002 82B0     		sub	sp, sp, #8
 200              		.cfi_def_cfa_offset 16
 201              	.L18:
 202              	.LBB2:
  69:source\asw/game.c ****     while (1) {
  70:source\asw/game.c ****         EventMaskType ev = 0;
 203              		.loc 1 70 0 discriminator 1
 204 0004 02AC     		add	r4, sp, #8
 205 0006 0023     		movs	r3, #0
 206 0008 44F8043D 		str	r3, [r4, #-4]!
  71:source\asw/game.c ****         srand(counterTimer);
 207              		.loc 1 71 0 discriminator 1
 208 000c 0A4B     		ldr	r3, .L20
 209 000e 1888     		ldrh	r0, [r3]
 210 0010 FFF7FEFF 		bl	srand
 211              	.LVL18:
  72:source\asw/game.c ****         startGame();
 212              		.loc 1 72 0 discriminator 1
ARM GAS  C:\Users\acer\AppData\Local\Temp\ccOt5Npb.s 			page 6


 213 0014 FFF7FEFF 		bl	startGame
 214              	.LVL19:
  73:source\asw/game.c **** 
  74:source\asw/game.c ****         WaitEvent(ev_Button_3 | ev_Button_4);
 215              		.loc 1 74 0 discriminator 1
 216 0018 0C20     		movs	r0, #12
 217 001a FFF7FEFF 		bl	EE_oo_WaitEvent
 218              	.LVL20:
  75:source\asw/game.c ****         GetEvent(tsk_button, &ev);
 219              		.loc 1 75 0 discriminator 1
 220 001e 2146     		mov	r1, r4
 221 0020 0320     		movs	r0, #3
 222 0022 FFF7FEFF 		bl	EE_oo_GetEvent
 223              	.LVL21:
  76:source\asw/game.c ****         ClearEvent(ev);
 224              		.loc 1 76 0 discriminator 1
 225 0026 0198     		ldr	r0, [sp, #4]
 226 0028 FFF7FEFF 		bl	EE_oo_ClearEvent
 227              	.LVL22:
  77:source\asw/game.c ****         
  78:source\asw/game.c ****         generateRandomDelayAndDisplay();
 228              		.loc 1 78 0 discriminator 1
 229 002c FFF7FEFF 		bl	generateRandomDelayAndDisplay
 230              	.LVL23:
  79:source\asw/game.c ****         ActivateTask(tsk_event);
 231              		.loc 1 79 0 discriminator 1
 232 0030 0220     		movs	r0, #2
 233 0032 FFF7FEFF 		bl	EE_oo_ActivateTask
 234              	.LVL24:
 235 0036 E5E7     		b	.L18
 236              	.L21:
 237              		.align	2
 238              	.L20:
 239 0038 00000000 		.word	.LANCHOR0
 240              	.LBE2:
 241              		.cfi_endproc
 242              	.LFE114:
 243              		.size	Functsk_button, .-Functsk_button
 244              		.section	.text.Functsk_timer,"ax",%progbits
 245              		.align	2
 246              		.global	Functsk_timer
 247              		.thumb
 248              		.thumb_func
 249              		.type	Functsk_timer, %function
 250              	Functsk_timer:
 251              	.LFB115:
  80:source\asw/game.c ****     }
  81:source\asw/game.c ****     TerminateTask();
  82:source\asw/game.c **** }
  83:source\asw/game.c **** 
  84:source\asw/game.c **** /*
  85:source\asw/game.c **** * tsk_timer is a basic task called by the alrm_Tick1ms which is called
  86:source\asw/game.c **** * every 1ms. Here a variable counterTimer is incremented
  87:source\asw/game.c **** */
  88:source\asw/game.c **** TASK(tsk_timer)
  89:source\asw/game.c **** {
 252              		.loc 1 89 0
ARM GAS  C:\Users\acer\AppData\Local\Temp\ccOt5Npb.s 			page 7


 253              		.cfi_startproc
 254              		@ args = 0, pretend = 0, frame = 0
 255              		@ frame_needed = 0, uses_anonymous_args = 0
 256 0000 08B5     		push	{r3, lr}
 257              		.cfi_def_cfa_offset 8
 258              		.cfi_offset 3, -8
 259              		.cfi_offset 14, -4
  90:source\asw/game.c ****     counterTimer++;  
 260              		.loc 1 90 0
 261 0002 034A     		ldr	r2, .L24
 262 0004 1388     		ldrh	r3, [r2]
 263 0006 0133     		adds	r3, r3, #1
 264 0008 1380     		strh	r3, [r2]	@ movhi
  91:source\asw/game.c ****     TerminateTask();
 265              		.loc 1 91 0
 266 000a FFF7FEFF 		bl	EE_oo_TerminateTask
 267              	.LVL25:
 268 000e 08BD     		pop	{r3, pc}
 269              	.L25:
 270              		.align	2
 271              	.L24:
 272 0010 00000000 		.word	.LANCHOR0
 273              		.cfi_endproc
 274              	.LFE115:
 275              		.size	Functsk_timer, .-Functsk_timer
 276              		.global	__aeabi_i2f
 277              		.global	__aeabi_fdiv
 278              		.global	__aeabi_f2d
 279              		.section	.text.Functsk_event,"ax",%progbits
 280              		.align	2
 281              		.global	Functsk_event
 282              		.thumb
 283              		.thumb_func
 284              		.type	Functsk_event, %function
 285              	Functsk_event:
 286              	.LFB116:
  92:source\asw/game.c **** }
  93:source\asw/game.c **** 
  94:source\asw/game.c **** /*
  95:source\asw/game.c **** * tsk_event is an extended task that waits for a button 1 or 2 press.
  96:source\asw/game.c **** * Initially, the game waits for a button to be pressed and if an event
  97:source\asw/game.c **** * occurs, will measure the current counter timer and calculate the difference,
  98:source\asw/game.c **** * which is the reaction time of the player.
  99:source\asw/game.c **** * If the reaction time is within 1s, then further check is done if right button
 100:source\asw/game.c **** * is pressed when 2 is displayed and left button is pressed when 1 is displayed
 101:source\asw/game.c **** * Paralelly the score and reaction time are noted and the later is stored in an array
 102:source\asw/game.c **** * Finally after 10 rounds of the game, the Total time, score and the average reaction
 103:source\asw/game.c **** * time is displayed and Game is over
 104:source\asw/game.c **** */
 105:source\asw/game.c **** TASK(tsk_event)
 106:source\asw/game.c **** {  
 287              		.loc 1 106 0
 288              		.cfi_startproc
 289              		@ args = 0, pretend = 0, frame = 48
 290              		@ frame_needed = 0, uses_anonymous_args = 0
 291 0000 30B5     		push	{r4, r5, lr}
 292              		.cfi_def_cfa_offset 12
ARM GAS  C:\Users\acer\AppData\Local\Temp\ccOt5Npb.s 			page 8


 293              		.cfi_offset 4, -12
 294              		.cfi_offset 5, -8
 295              		.cfi_offset 14, -4
 296 0002 8FB0     		sub	sp, sp, #60
 297              		.cfi_def_cfa_offset 72
 298              	.LVL26:
 107:source\asw/game.c ****     uint8_t gameRound =0;
 299              		.loc 1 107 0
 300 0004 0024     		movs	r4, #0
 301              	.LVL27:
 302              	.L36:
 303              	.LBB3:
 108:source\asw/game.c ****     static int score = 0;
 109:source\asw/game.c ****     static float avgTime = 0.0;
 110:source\asw/game.c ****     static int reactionTimeArray[10];
 111:source\asw/game.c **** 
 112:source\asw/game.c ****     while(1)
 113:source\asw/game.c ****     {
 114:source\asw/game.c ****     EventMaskType ev = 0;
 304              		.loc 1 114 0
 305 0006 0023     		movs	r3, #0
 306 0008 0393     		str	r3, [sp, #12]
 307              	.LVL28:
 115:source\asw/game.c ****     uint16_t endTime =0;
 116:source\asw/game.c ****         
 117:source\asw/game.c ****     uint16_t reactionTime = 0;    
 118:source\asw/game.c **** 
 119:source\asw/game.c ****     if(gameRound<10)
 308              		.loc 1 119 0
 309 000a 092C     		cmp	r4, #9
 310 000c 55D8     		bhi	.L27
 120:source\asw/game.c ****     {  
 121:source\asw/game.c ****         WaitEvent (ev_Button_1 | ev_Button_2);
 311              		.loc 1 121 0
 312 000e 0320     		movs	r0, #3
 313 0010 FFF7FEFF 		bl	EE_oo_WaitEvent
 314              	.LVL29:
 122:source\asw/game.c ****         GetEvent(tsk_event, &ev);
 315              		.loc 1 122 0
 316 0014 03A9     		add	r1, sp, #12
 317 0016 0220     		movs	r0, #2
 318 0018 FFF7FEFF 		bl	EE_oo_GetEvent
 319              	.LVL30:
 123:source\asw/game.c ****         ClearEvent(ev);
 320              		.loc 1 123 0
 321 001c 0398     		ldr	r0, [sp, #12]
 322 001e FFF7FEFF 		bl	EE_oo_ClearEvent
 323              	.LVL31:
 124:source\asw/game.c ****         endTime = counterTimer;
 324              		.loc 1 124 0
 325 0022 3A4A     		ldr	r2, .L39
 326 0024 1388     		ldrh	r3, [r2]
 327              	.LVL32:
 125:source\asw/game.c ****         reactionTime = endTime-startTime;
 328              		.loc 1 125 0
 329 0026 5588     		ldrh	r5, [r2, #2]
 330 0028 5D1B     		subs	r5, r3, r5
ARM GAS  C:\Users\acer\AppData\Local\Temp\ccOt5Npb.s 			page 9


 331 002a ADB2     		uxth	r5, r5
 332              	.LVL33:
 126:source\asw/game.c ****         if (reactionSpeed(reactionTime) != RC_ERROR){
 333              		.loc 1 126 0
 334 002c 2846     		mov	r0, r5
 335 002e FFF7FEFF 		bl	reactionSpeed
 336              	.LVL34:
 337 0032 B0F1FF3F 		cmp	r0, #-1
 338 0036 39D0     		beq	.L28
 127:source\asw/game.c ****             if (ev & ev_Button_1){
 339              		.loc 1 127 0
 340 0038 039B     		ldr	r3, [sp, #12]
 341 003a 13F0010F 		tst	r3, #1
 342 003e 17D0     		beq	.L29
 128:source\asw/game.c ****                 if(SEVEN_Ret(SEVEN_0) == 2){
 343              		.loc 1 128 0
 344 0040 0020     		movs	r0, #0
 345 0042 FFF7FEFF 		bl	SEVEN_Ret
 346              	.LVL35:
 347 0046 0228     		cmp	r0, #2
 348 0048 0FD1     		bne	.L30
 349              	.LBB4:
 129:source\asw/game.c ****                     score++;
 350              		.loc 1 129 0
 351 004a 304B     		ldr	r3, .L39
 352 004c 5A68     		ldr	r2, [r3, #4]
 353 004e 0132     		adds	r2, r2, #1
 354 0050 5A60     		str	r2, [r3, #4]
 130:source\asw/game.c ****                     reactionTimeArray[gameRound] = reactionTime;
 355              		.loc 1 130 0
 356 0052 03EB8403 		add	r3, r3, r4, lsl #2
 357 0056 9D60     		str	r5, [r3, #8]
 131:source\asw/game.c ****                     char buffer[20];
 132:source\asw/game.c ****                     sprintf(buffer,"Great - correct button pressed \nReaction time in ms: %d \n",re
 358              		.loc 1 132 0
 359 0058 2A46     		mov	r2, r5
 360 005a 2D49     		ldr	r1, .L39+4
 361 005c 04A8     		add	r0, sp, #16
 362 005e FFF7FEFF 		bl	sprintf
 363              	.LVL36:
 133:source\asw/game.c ****                     UART_LOG_PutString(buffer);
 364              		.loc 1 133 0
 365 0062 04A8     		add	r0, sp, #16
 366 0064 FFF7FEFF 		bl	UART_LOG_PutString
 367              	.LVL37:
 368              	.LBE4:
 369 0068 02E0     		b	.L29
 370              	.L30:
 134:source\asw/game.c ****                 }
 135:source\asw/game.c ****                 else{
 136:source\asw/game.c ****                     UART_LOG_PutString("Error: Incorrect button pressed\n");       
 371              		.loc 1 136 0
 372 006a 2A48     		ldr	r0, .L39+8
 373 006c FFF7FEFF 		bl	UART_LOG_PutString
 374              	.LVL38:
 375              	.L29:
 137:source\asw/game.c ****                 }  
ARM GAS  C:\Users\acer\AppData\Local\Temp\ccOt5Npb.s 			page 10


 138:source\asw/game.c ****             }
 139:source\asw/game.c ****             if (ev & ev_Button_2){
 376              		.loc 1 139 0
 377 0070 039B     		ldr	r3, [sp, #12]
 378 0072 13F0020F 		tst	r3, #2
 379 0076 17D0     		beq	.L31
 140:source\asw/game.c ****                 if(SEVEN_Ret(SEVEN_1) == 1){
 380              		.loc 1 140 0
 381 0078 0120     		movs	r0, #1
 382 007a FFF7FEFF 		bl	SEVEN_Ret
 383              	.LVL39:
 384 007e 0128     		cmp	r0, #1
 385 0080 0FD1     		bne	.L32
 386              	.LBB5:
 141:source\asw/game.c ****                     score++;
 387              		.loc 1 141 0
 388 0082 224B     		ldr	r3, .L39
 389 0084 5A68     		ldr	r2, [r3, #4]
 390 0086 0132     		adds	r2, r2, #1
 391 0088 5A60     		str	r2, [r3, #4]
 142:source\asw/game.c ****                     reactionTimeArray[gameRound] = reactionTime;
 392              		.loc 1 142 0
 393 008a 03EB8403 		add	r3, r3, r4, lsl #2
 394 008e 9D60     		str	r5, [r3, #8]
 143:source\asw/game.c ****                     char buffer[20];
 144:source\asw/game.c ****                     sprintf(buffer,"Great - correct button pressed \nReaction time in ms: %d \n",re
 395              		.loc 1 144 0
 396 0090 2A46     		mov	r2, r5
 397 0092 1F49     		ldr	r1, .L39+4
 398 0094 04A8     		add	r0, sp, #16
 399 0096 FFF7FEFF 		bl	sprintf
 400              	.LVL40:
 145:source\asw/game.c ****                     UART_LOG_PutString(buffer);
 401              		.loc 1 145 0
 402 009a 04A8     		add	r0, sp, #16
 403 009c FFF7FEFF 		bl	UART_LOG_PutString
 404              	.LVL41:
 405              	.LBE5:
 406 00a0 02E0     		b	.L31
 407              	.L32:
 146:source\asw/game.c ****                 }
 147:source\asw/game.c ****                 else{
 148:source\asw/game.c ****                     UART_LOG_PutString("Error: Incorrect button pressed\n");       
 408              		.loc 1 148 0
 409 00a2 1C48     		ldr	r0, .L39+8
 410 00a4 FFF7FEFF 		bl	UART_LOG_PutString
 411              	.LVL42:
 412              	.L31:
 149:source\asw/game.c ****                 }
 150:source\asw/game.c ****             }
 151:source\asw/game.c ****             gameRound++;
 413              		.loc 1 151 0
 414 00a8 0134     		adds	r4, r4, #1
 415              	.LVL43:
 416 00aa E4B2     		uxtb	r4, r4
 417              	.LVL44:
 418              	.L28:
ARM GAS  C:\Users\acer\AppData\Local\Temp\ccOt5Npb.s 			page 11


 152:source\asw/game.c **** 
 153:source\asw/game.c ****         }
 154:source\asw/game.c ****             SEVEN_Clear(SEVEN_1);
 419              		.loc 1 154 0
 420 00ac 0120     		movs	r0, #1
 421 00ae FFF7FEFF 		bl	SEVEN_Clear
 422              	.LVL45:
 155:source\asw/game.c ****             SEVEN_Clear(SEVEN_0);
 423              		.loc 1 155 0
 424 00b2 0020     		movs	r0, #0
 425 00b4 FFF7FEFF 		bl	SEVEN_Clear
 426              	.LVL46:
 427 00b8 A5E7     		b	.L36
 428              	.LVL47:
 429              	.L27:
 156:source\asw/game.c ****     }
 157:source\asw/game.c ****     else if(gameRound == 10){
 430              		.loc 1 157 0
 431 00ba 0A2C     		cmp	r4, #10
 432 00bc A3D1     		bne	.L36
 433 00be 08E0     		b	.L37
 434              	.LVL48:
 435              	.L35:
 436              	.LBB6:
 437              	.LBB7:
 158:source\asw/game.c ****         static int sumTime = 0;
 159:source\asw/game.c ****         for (int i = 0; i < gameRound; i++) {
 160:source\asw/game.c ****             sumTime += reactionTimeArray[i];
 438              		.loc 1 160 0 discriminator 3
 439 00c0 124A     		ldr	r2, .L39
 440 00c2 02EB8301 		add	r1, r2, r3, lsl #2
 441 00c6 8968     		ldr	r1, [r1, #8]
 442 00c8 106B     		ldr	r0, [r2, #48]
 443 00ca 0144     		add	r1, r1, r0
 444 00cc 1163     		str	r1, [r2, #48]
 159:source\asw/game.c ****             sumTime += reactionTimeArray[i];
 445              		.loc 1 159 0 discriminator 3
 446 00ce 0133     		adds	r3, r3, #1
 447              	.LVL49:
 448 00d0 00E0     		b	.L34
 449              	.LVL50:
 450              	.L37:
 451              	.LBE7:
 452              	.LBE6:
 453 00d2 0023     		movs	r3, #0
 454              	.L34:
 455              	.LVL51:
 456              	.LBB9:
 457              	.LBB8:
 159:source\asw/game.c ****             sumTime += reactionTimeArray[i];
 458              		.loc 1 159 0 is_stmt 0 discriminator 1
 459 00d4 A342     		cmp	r3, r4
 460 00d6 F3DB     		blt	.L35
 461              	.LBE8:
 161:source\asw/game.c ****             }
 162:source\asw/game.c ****         avgTime = (float)sumTime / 10.0;
 462              		.loc 1 162 0 is_stmt 1
ARM GAS  C:\Users\acer\AppData\Local\Temp\ccOt5Npb.s 			page 12


 463 00d8 0C4D     		ldr	r5, .L39
 464 00da 2C6B     		ldr	r4, [r5, #48]
 465              	.LVL52:
 466 00dc 2046     		mov	r0, r4
 467 00de FFF7FEFF 		bl	__aeabi_i2f
 468              	.LVL53:
 469 00e2 0D49     		ldr	r1, .L39+12
 470 00e4 FFF7FEFF 		bl	__aeabi_fdiv
 471              	.LVL54:
 163:source\asw/game.c ****         char buffer[40];
 164:source\asw/game.c ****         sprintf(buffer,"Game score: %d \nTotal time : %d\nAverage reaction time in ms: %.2f \nGame 
 472              		.loc 1 164 0
 473 00e8 6D68     		ldr	r5, [r5, #4]
 474 00ea FFF7FEFF 		bl	__aeabi_f2d
 475              	.LVL55:
 476 00ee CDE90001 		strd	r0, [sp]
 477 00f2 2346     		mov	r3, r4
 478 00f4 2A46     		mov	r2, r5
 479 00f6 0949     		ldr	r1, .L39+16
 480 00f8 04A8     		add	r0, sp, #16
 481 00fa FFF7FEFF 		bl	sprintf
 482              	.LVL56:
 165:source\asw/game.c ****         UART_LOG_PutString(buffer);
 483              		.loc 1 165 0
 484 00fe 04A8     		add	r0, sp, #16
 485 0100 FFF7FEFF 		bl	UART_LOG_PutString
 486              	.LVL57:
 487              	.LBE9:
 488              	.LBE3:
 166:source\asw/game.c ****         break;        
 167:source\asw/game.c ****         }
 168:source\asw/game.c ****     }
 169:source\asw/game.c ****     
 170:source\asw/game.c ****     TerminateTask();
 489              		.loc 1 170 0
 490 0104 FFF7FEFF 		bl	EE_oo_TerminateTask
 491              	.LVL58:
 171:source\asw/game.c **** }
 492              		.loc 1 171 0
 493 0108 0FB0     		add	sp, sp, #60
 494              		.cfi_def_cfa_offset 12
 495              		@ sp needed
 496 010a 30BD     		pop	{r4, r5, pc}
 497              	.L40:
 498              		.align	2
 499              	.L39:
 500 010c 00000000 		.word	.LANCHOR0
 501 0110 8C000000 		.word	.LC4
 502 0114 C8000000 		.word	.LC5
 503 0118 00002041 		.word	1092616192
 504 011c EC000000 		.word	.LC6
 505              		.cfi_endproc
 506              	.LFE116:
 507              		.size	Functsk_event, .-Functsk_event
 508              		.global	counterTimer
 509              		.global	startTime
 510              		.section	.rodata.str1.4,"aMS",%progbits,1
ARM GAS  C:\Users\acer\AppData\Local\Temp\ccOt5Npb.s 			page 13


 511              		.align	2
 512              	.LC0:
 513 0000 546F6F20 		.ascii	"Too slow \012\000"
 513      736C6F77 
 513      200A00
 514 000b 00       		.space	1
 515              	.LC1:
 516 000c 3D3D3D3D 		.ascii	"==================================================="
 516      3D3D3D3D 
 516      3D3D3D3D 
 516      3D3D3D3D 
 516      3D3D3D3D 
 517 003f 3D3D3D3D 		.ascii	"====\012\000"
 517      0A00
 518 0045 000000   		.space	3
 519              	.LC2:
 520 0048 52656163 		.ascii	"Reaction test program\012\000"
 520      74696F6E 
 520      20746573 
 520      74207072 
 520      6F677261 
 521 005f 00       		.space	1
 522              	.LC3:
 523 0060 50726573 		.ascii	"Press one of the two buttons to start... \012\000"
 523      73206F6E 
 523      65206F66 
 523      20746865 
 523      2074776F 
 524 008b 00       		.space	1
 525              	.LC4:
 526 008c 47726561 		.ascii	"Great - correct button pressed \012Reaction time in"
 526      74202D20 
 526      636F7272 
 526      65637420 
 526      62757474 
 527 00bc 206D733A 		.ascii	" ms: %d \012\000"
 527      20256420 
 527      0A00
 528 00c6 0000     		.space	2
 529              	.LC5:
 530 00c8 4572726F 		.ascii	"Error: Incorrect button pressed\012\000"
 530      723A2049 
 530      6E636F72 
 530      72656374 
 530      20627574 
 531 00e9 000000   		.space	3
 532              	.LC6:
 533 00ec 47616D65 		.ascii	"Game score: %d \012Total time : %d\012Average react"
 533      2073636F 
 533      72653A20 
 533      2564200A 
 533      546F7461 
 534 0119 696F6E20 		.ascii	"ion time in ms: %.2f \012Game Over!\012\000"
 534      74696D65 
 534      20696E20 
 534      6D733A20 
 534      252E3266 
ARM GAS  C:\Users\acer\AppData\Local\Temp\ccOt5Npb.s 			page 14


 535              		.bss
 536              		.align	2
 537              		.set	.LANCHOR0,. + 0
 538              		.type	counterTimer, %object
 539              		.size	counterTimer, 2
 540              	counterTimer:
 541 0000 0000     		.space	2
 542              		.type	startTime, %object
 543              		.size	startTime, 2
 544              	startTime:
 545 0002 0000     		.space	2
 546              		.type	score.8886, %object
 547              		.size	score.8886, 4
 548              	score.8886:
 549 0004 00000000 		.space	4
 550              		.type	reactionTimeArray.8888, %object
 551              		.size	reactionTimeArray.8888, 40
 552              	reactionTimeArray.8888:
 553 0008 00000000 		.space	40
 553      00000000 
 553      00000000 
 553      00000000 
 553      00000000 
 554              		.type	sumTime.8894, %object
 555              		.size	sumTime.8894, 4
 556              	sumTime.8894:
 557 0030 00000000 		.space	4
 558              		.text
 559              	.Letext0:
 560              		.file 2 "c:\\program files (x86)\\cypress\\psoc creator\\4.4\\psoc creator\\import\\gnu\\arm\\5.4.
 561              		.file 3 "c:\\program files (x86)\\cypress\\psoc creator\\4.4\\psoc creator\\import\\gnu\\arm\\5.4.
 562              		.file 4 "Generated_Source\\PSoC5/ErikaOS_1_common_ee_types.inc"
 563              		.file 5 "Generated_Source\\PSoC5/ErikaOS_1_cortex_mx_ee_cpu.inc"
 564              		.file 6 "Generated_Source\\PSoC5/ErikaOS_1_ee_oo_common.inc"
 565              		.file 7 ".\\source\\bsw/global.h"
 566              		.file 8 ".\\source\\bsw\\LabBoard/seven.h"
 567              		.file 9 "Generated_Source\\PSoC5/ErikaOS_1_ee_oo_intfunc.inc"
 568              		.file 10 "Generated_Source\\PSoC5/ErikaOS_1_cortex_mx_ee_context.inc"
 569              		.file 11 "Generated_Source\\PSoC5/ErikaOS_1_common_ee_primitives.inc"
 570              		.file 12 "Generated_Source\\PSoC5/core_cm3.h"
 571              		.file 13 "Generated_Source\\PSoC5/UART_LOG.h"
 572              		.file 14 "c:\\program files (x86)\\cypress\\psoc creator\\4.4\\psoc creator\\import\\gnu\\arm\\5.4
 573              		.file 15 "Generated_Source\\PSoC5/CyLib.h"
 574              		.file 16 "Generated_Source\\PSoC5/ErikaOS_1_ee_oo_kernel.inc"
 575              		.file 17 "c:\\program files (x86)\\cypress\\psoc creator\\4.4\\psoc creator\\import\\gnu\\arm\\5.4